target datalayout = "e-m:e-p270:32:32-p271:32:32-p272:64:64-i64:64-i128:128-f80:128-n8:16:32:64-S128"
target triple = "x86_64-pc-linux-gnu"

%struct.lv_calendar_date_t = type { i16, i8, i8 }

@calendar = internal global ptr null, align 8
@.str.37 = private unnamed_addr constant [13 x i8] c"%02d.%02d.%d\00", align 1

; Function Attrs: nounwind uwtable
define internal void @calendar_event_cb(ptr noundef %0) #0 {
  %2 = alloca ptr, align 8
  %3 = alloca i32, align 4
  %4 = alloca ptr, align 8
  %5 = alloca ptr, align 8
  %6 = alloca %struct.lv_calendar_date_t, align 2
  %7 = alloca [32 x i8], align 16
  store ptr %0, ptr %2, align 8, !tbaa !7
  call void @llvm.lifetime.start.p0(i64 4, ptr %3) #5
  %8 = load ptr, ptr %2, align 8, !tbaa !7
  %9 = call i32 @lv_event_get_code(ptr noundef %8)
  store i32 %9, ptr %3, align 4, !tbaa !3
  call void @llvm.lifetime.start.p0(i64 8, ptr %4) #5
  %10 = load ptr, ptr %2, align 8, !tbaa !7
  %11 = call ptr @lv_event_get_user_data(ptr noundef %10)
  store ptr %11, ptr %4, align 8, !tbaa !7
  call void @llvm.lifetime.start.p0(i64 8, ptr %5) #5
  %12 = load ptr, ptr %2, align 8, !tbaa !7
  %13 = call ptr @lv_event_get_current_target(ptr noundef %12)
  store ptr %13, ptr %5, align 8, !tbaa !7
  %14 = load i32, ptr %3, align 4, !tbaa !3
  %15 = icmp eq i32 %14, 35
  br i1 %15, label %16, label %35

16:                                               ; preds = %1
  call void @llvm.lifetime.start.p0(i64 4, ptr %6) #5
  %17 = load ptr, ptr %5, align 8, !tbaa !7
  %18 = call i32 @lv_calendar_get_pressed_date(ptr noundef %17, ptr noundef %6)
  call void @llvm.lifetime.start.p0(i64 32, ptr %7) #5
  %19 = getelementptr inbounds [32 x i8], ptr %7, i64 0, i64 0
  %20 = getelementptr inbounds nuw %struct.lv_calendar_date_t, ptr %6, i32 0, i32 2
  %21 = load i8, ptr %20, align 1, !tbaa !34
  %22 = sext i8 %21 to i32
  %23 = getelementptr inbounds nuw %struct.lv_calendar_date_t, ptr %6, i32 0, i32 1
  %24 = load i8, ptr %23, align 2, !tbaa !37
  %25 = sext i8 %24 to i32
  %26 = getelementptr inbounds nuw %struct.lv_calendar_date_t, ptr %6, i32 0, i32 0
  %27 = load i16, ptr %26, align 2, !tbaa !38
  %28 = zext i16 %27 to i32
  %29 = call i32 (ptr, i64, ptr, ...) @lv_snprintf(ptr noundef %19, i64 noundef 32, ptr noundef @.str.37, i32 noundef %22, i32 noundef %25, i32 noundef %28)
  %30 = load ptr, ptr %4, align 8, !tbaa !7
  %31 = getelementptr inbounds [32 x i8], ptr %7, i64 0, i64 0
  call void @lv_textarea_set_text(ptr noundef %30, ptr noundef %31)
  %32 = load ptr, ptr @calendar, align 8, !tbaa !7
  call void @lv_obj_delete(ptr noundef %32)
  store ptr null, ptr @calendar, align 8, !tbaa !7
  %33 = call ptr @lv_layer_top()
  call void @lv_obj_remove_flag(ptr noundef %33, i32 noundef 2)
  %34 = call ptr @lv_layer_top()
  call void @lv_obj_set_style_bg_opa(ptr noundef %34, i8 noundef zeroext 0, i32 noundef 0)
  call void @llvm.lifetime.end.p0(i64 32, ptr %7) #5
  call void @llvm.lifetime.end.p0(i64 4, ptr %6) #5
  br label %35

35:                                               ; preds = %16, %1
  call void @llvm.lifetime.end.p0(i64 8, ptr %5) #5
  call void @llvm.lifetime.end.p0(i64 8, ptr %4) #5
  call void @llvm.lifetime.end.p0(i64 4, ptr %3) #5
  ret void
}