; Function Attrs: nounwind uwtable
define internal void @calendar_event_cb(ptr noundef %0) #0 {
  %2 = alloca %struct.lv_calendar_date_t, align 2
  %3 = alloca [32 x i8], align 16
  %4 = tail call i32 @lv_event_get_code(ptr noundef %0) #5
  %5 = tail call ptr @lv_event_get_user_data(ptr noundef %0) #5
  %6 = tail call ptr @lv_event_get_current_target(ptr noundef %0) #5
  %7 = icmp eq i32 %4, 35
  br i1 %7, label %8, label %22

8:                                                ; preds = %1
  call void @llvm.lifetime.start.p0(i64 4, ptr nonnull %2) #5
  %9 = call i32 @lv_calendar_get_pressed_date(ptr noundef %6, ptr noundef nonnull %2) #5
  call void @llvm.lifetime.start.p0(i64 32, ptr nonnull %3) #5
  %10 = getelementptr inbounds nuw i8, ptr %2, i64 3
  %11 = load i8, ptr %10, align 1, !tbaa !32
  %12 = sext i8 %11 to i32
  %13 = getelementptr inbounds nuw i8, ptr %2, i64 2
  %14 = load i8, ptr %13, align 2, !tbaa !35
  %15 = sext i8 %14 to i32
  %16 = load i16, ptr %2, align 2, !tbaa !36
  %17 = zext i16 %16 to i32
  %18 = call i32 (ptr, i64, ptr, ...) @lv_snprintf(ptr noundef nonnull %3, i64 noundef 32, ptr noundef nonnull @.str.37, i32 noundef %12, i32 noundef %15, i32 noundef %17) #5
  call void @lv_textarea_set_text(ptr noundef %5, ptr noundef nonnull %3) #5
  %19 = load ptr, ptr @calendar, align 8, !tbaa !7
  call void @lv_obj_delete(ptr noundef %19) #5
  store ptr null, ptr @calendar, align 8, !tbaa !7
  %20 = call ptr @lv_layer_top() #5
  call void @lv_obj_remove_flag(ptr noundef %20, i32 noundef 2) #5
  %21 = call ptr @lv_layer_top() #5
  call void @lv_obj_set_style_bg_opa(ptr noundef %21, i8 noundef zeroext 0, i32 noundef 0) #5
  call void @llvm.lifetime.end.p0(i64 32, ptr nonnull %3) #5
  call void @llvm.lifetime.end.p0(i64 4, ptr nonnull %2) #5
  br label %22

22:                                               ; preds = %8, %1
  ret void
}